; Function Attrs: cold nounwind optsize uwtable
define internal noundef i32 @mss2_decode_end(ptr noundef %0) #0 {
  %2 = getelementptr inbounds nuw i8, ptr %0, i64 32
  %3 = load ptr, ptr %2, align 8, !tbaa !4
  %4 = getelementptr inbounds nuw i8, ptr %3, i64 10664
  tail call void @av_frame_free(ptr noundef nonnull %4) #11
  %5 = getelementptr inbounds nuw i8, ptr %3, i64 10672
  %6 = tail call i32 @ff_mss12_decode_end(ptr noundef nonnull %5) #11
  %7 = getelementptr inbounds nuw i8, ptr %3, i64 11704
  tail call void @av_freep(ptr noundef nonnull %7) #11
  %8 = getelementptr inbounds nuw i8, ptr %3, i64 11712
  tail call void @av_freep(ptr noundef nonnull %8) #11
  %9 = tail call i32 @ff_vc1_decode_end(ptr noundef %0) #11
  ret i32 0
}